target datalayout = "e-m:e-p270:32:32-p271:32:32-p272:64:64-i64:64-i128:128-f80:128-n8:16:32:64-S128"
target triple = "x86_64-pc-linux-gnu"

%"class.i18n::phonenumbers::StringPiece" = type { ptr, i64 }
%"struct.__gnu_cxx::__ops::_Iter_equals_val" = type { ptr }

; Function Attrs: mustprogress nounwind uwtable
define linkonce_odr dso_local noundef zeroext i1 @_ZN9__gnu_cxx5__ops16_Iter_equals_valIKcEclIPS2_EEbT_(ptr noundef nonnull align 8 dereferenceable(8) %0, ptr noundef %1) #2 comdat align 2 {
  %3 = alloca ptr, align 8
  %4 = alloca ptr, align 8
  store ptr %0, ptr %3, align 8, !tbaa !59
  store ptr %1, ptr %4, align 8, !tbaa !16
  %5 = load ptr, ptr %3, align 8
  %6 = load ptr, ptr %4, align 8, !tbaa !16
  %7 = load i8, ptr %6, align 1, !tbaa !22
  %8 = sext i8 %7 to i32
  %9 = getelementptr inbounds nuw %"struct.__gnu_cxx::__ops::_Iter_equals_val", ptr %5, i32 0, i32 0
  %10 = load ptr, ptr %9, align 8, !tbaa !61
  %11 = load i8, ptr %10, align 1, !tbaa !22
  %12 = sext i8 %11 to i32
  %13 = icmp eq i32 %8, %12
  ret i1 %13
}

; Function Attrs: mustprogress uwtable
define linkonce_odr dso_local noundef ptr @_ZSt9__find_ifIPKcN9__gnu_cxx5__ops16_Iter_equals_valIS0_EEET_S6_S6_T0_St26random_access_iterator_tag(ptr noundef %0, ptr noundef %1, ptr %2) #0 comdat {
  %4 = alloca ptr, align 8
  %5 = alloca %"struct.__gnu_cxx::__ops::_Iter_equals_val", align 8
  %6 = alloca ptr, align 8
  %7 = alloca ptr, align 8
  %8 = alloca i64, align 8
  %9 = alloca i32, align 4
  %10 = getelementptr inbounds nuw %"struct.__gnu_cxx::__ops::_Iter_equals_val", ptr %5, i32 0, i32 0
  store ptr %2, ptr %10, align 8
  store ptr %0, ptr %6, align 8, !tbaa !16
  store ptr %1, ptr %7, align 8, !tbaa !16
  call void @llvm.lifetime.start.p0(i64 8, ptr %8) #13
  %11 = load ptr, ptr %7, align 8, !tbaa !16
  %12 = load ptr, ptr %6, align 8, !tbaa !16
  %13 = ptrtoint ptr %11 to i64
  %14 = ptrtoint ptr %12 to i64
  %15 = sub i64 %13, %14
  %16 = ashr i64 %15, 2
  store i64 %16, ptr %8, align 8, !tbaa !17
  br label %17

17:                                               ; preds = %49, %3
  %18 = load i64, ptr %8, align 8, !tbaa !17
  %19 = icmp sgt i64 %18, 0
  br i1 %19, label %20, label %52

20:                                               ; preds = %17
  %21 = load ptr, ptr %6, align 8, !tbaa !16
  %22 = call noundef zeroext i1 @_ZN9__gnu_cxx5__ops16_Iter_equals_valIKcEclIPS2_EEbT_(ptr noundef nonnull align 8 dereferenceable(8) %5, ptr noundef %21)
  br i1 %22, label %23, label %25

23:                                               ; preds = %20
  %24 = load ptr, ptr %6, align 8, !tbaa !16
  store ptr %24, ptr %4, align 8
  store i32 1, ptr %9, align 4
  br label %85

25:                                               ; preds = %20
  %26 = load ptr, ptr %6, align 8, !tbaa !16
  %27 = getelementptr inbounds nuw i8, ptr %26, i32 1
  store ptr %27, ptr %6, align 8, !tbaa !16
  %28 = load ptr, ptr %6, align 8, !tbaa !16
  %29 = call noundef zeroext i1 @_ZN9__gnu_cxx5__ops16_Iter_equals_valIKcEclIPS2_EEbT_(ptr noundef nonnull align 8 dereferenceable(8) %5, ptr noundef %28)
  br i1 %29, label %30, label %32

30:                                               ; preds = %25
  %31 = load ptr, ptr %6, align 8, !tbaa !16
  store ptr %31, ptr %4, align 8
  store i32 1, ptr %9, align 4
  br label %85

32:                                               ; preds = %25
  %33 = load ptr, ptr %6, align 8, !tbaa !16
  %34 = getelementptr inbounds nuw i8, ptr %33, i32 1
  store ptr %34, ptr %6, align 8, !tbaa !16
  %35 = load ptr, ptr %6, align 8, !tbaa !16
  %36 = call noundef zeroext i1 @_ZN9__gnu_cxx5__ops16_Iter_equals_valIKcEclIPS2_EEbT_(ptr noundef nonnull align 8 dereferenceable(8) %5, ptr noundef %35)
  br i1 %36, label %37, label %39

37:                                               ; preds = %32
  %38 = load ptr, ptr %6, align 8, !tbaa !16
  store ptr %38, ptr %4, align 8
  store i32 1, ptr %9, align 4
  br label %85

39:                                               ; preds = %32
  %40 = load ptr, ptr %6, align 8, !tbaa !16
  %41 = getelementptr inbounds nuw i8, ptr %40, i32 1
  store ptr %41, ptr %6, align 8, !tbaa !16
  %42 = load ptr, ptr %6, align 8, !tbaa !16
  %43 = call noundef zeroext i1 @_ZN9__gnu_cxx5__ops16_Iter_equals_valIKcEclIPS2_EEbT_(ptr noundef nonnull align 8 dereferenceable(8) %5, ptr noundef %42)
  br i1 %43, label %44, label %46

44:                                               ; preds = %39
  %45 = load ptr, ptr %6, align 8, !tbaa !16
  store ptr %45, ptr %4, align 8
  store i32 1, ptr %9, align 4
  br label %85

46:                                               ; preds = %39
  %47 = load ptr, ptr %6, align 8, !tbaa !16
  %48 = getelementptr inbounds nuw i8, ptr %47, i32 1
  store ptr %48, ptr %6, align 8, !tbaa !16
  br label %49

49:                                               ; preds = %46
  %50 = load i64, ptr %8, align 8, !tbaa !17
  %51 = add nsw i64 %50, -1
  store i64 %51, ptr %8, align 8, !tbaa !17
  br label %17, !llvm.loop !58

52:                                               ; preds = %17
  %53 = load ptr, ptr %7, align 8, !tbaa !16
  %54 = load ptr, ptr %6, align 8, !tbaa !16
  %55 = ptrtoint ptr %53 to i64
  %56 = ptrtoint ptr %54 to i64
  %57 = sub i64 %55, %56
  switch i64 %57, label %83 [
    i64 3, label %58
    i64 2, label %66
    i64 1, label %74
    i64 0, label %82
  ]

58:                                               ; preds = %52
  %59 = load ptr, ptr %6, align 8, !tbaa !16
  %60 = call noundef zeroext i1 @_ZN9__gnu_cxx5__ops16_Iter_equals_valIKcEclIPS2_EEbT_(ptr noundef nonnull align 8 dereferenceable(8) %5, ptr noundef %59)
  br i1 %60, label %61, label %63

61:                                               ; preds = %58
  %62 = load ptr, ptr %6, align 8, !tbaa !16
  store ptr %62, ptr %4, align 8
  store i32 1, ptr %9, align 4
  br label %85

63:                                               ; preds = %58
  %64 = load ptr, ptr %6, align 8, !tbaa !16
  %65 = getelementptr inbounds nuw i8, ptr %64, i32 1
  store ptr %65, ptr %6, align 8, !tbaa !16
  br label %66

66:                                               ; preds = %52, %63
  %67 = load ptr, ptr %6, align 8, !tbaa !16
  %68 = call noundef zeroext i1 @_ZN9__gnu_cxx5__ops16_Iter_equals_valIKcEclIPS2_EEbT_(ptr noundef nonnull align 8 dereferenceable(8) %5, ptr noundef %67)
  br i1 %68, label %69, label %71

69:                                               ; preds = %66
  %70 = load ptr, ptr %6, align 8, !tbaa !16
  store ptr %70, ptr %4, align 8
  store i32 1, ptr %9, align 4
  br label %85

71:                                               ; preds = %66
  %72 = load ptr, ptr %6, align 8, !tbaa !16
  %73 = getelementptr inbounds nuw i8, ptr %72, i32 1
  store ptr %73, ptr %6, align 8, !tbaa !16
  br label %74

74:                                               ; preds = %52, %71
  %75 = load ptr, ptr %6, align 8, !tbaa !16
  %76 = call noundef zeroext i1 @_ZN9__gnu_cxx5__ops16_Iter_equals_valIKcEclIPS2_EEbT_(ptr noundef nonnull align 8 dereferenceable(8) %5, ptr noundef %75)
  br i1 %76, label %77, label %79

77:                                               ; preds = %74
  %78 = load ptr, ptr %6, align 8, !tbaa !16
  store ptr %78, ptr %4, align 8
  store i32 1, ptr %9, align 4
  br label %85

79:                                               ; preds = %74
  %80 = load ptr, ptr %6, align 8, !tbaa !16
  %81 = getelementptr inbounds nuw i8, ptr %80, i32 1
  store ptr %81, ptr %6, align 8, !tbaa !16
  br label %82

82:                                               ; preds = %52, %79
  br label %83

83:                                               ; preds = %52, %82
  %84 = load ptr, ptr %7, align 8, !tbaa !16
  store ptr %84, ptr %4, align 8
  store i32 1, ptr %9, align 4
  br label %85

85:                                               ; preds = %83, %77, %69, %61, %44, %37, %30, %23
  call void @llvm.lifetime.end.p0(i64 8, ptr %8) #13
  %86 = load ptr, ptr %4, align 8
  ret ptr %86
}

; Function Attrs: inlinehint mustprogress nounwind uwtable
define linkonce_odr dso_local void @_ZSt19__iterator_categoryIPKcENSt15iterator_traitsIT_E17iterator_categoryERKS3_(ptr noundef nonnull align 8 dereferenceable(8) %0) #4 comdat {
  %2 = alloca ptr, align 8
  store ptr %0, ptr %2, align 8, !tbaa !51
  ret void
}

; Function Attrs: mustprogress nounwind uwtable
define linkonce_odr dso_local void @_ZN9__gnu_cxx5__ops16_Iter_equals_valIKcEC2ERS2_(ptr noundef nonnull align 8 dereferenceable(8) %0, ptr noundef nonnull align 1 dereferenceable(1) %1) unnamed_addr #2 comdat align 2 {
  %3 = alloca ptr, align 8
  %4 = alloca ptr, align 8
  store ptr %0, ptr %3, align 8, !tbaa !59
  store ptr %1, ptr %4, align 8, !tbaa !16
  %5 = load ptr, ptr %3, align 8
  %6 = getelementptr inbounds nuw %"struct.__gnu_cxx::__ops::_Iter_equals_val", ptr %5, i32 0, i32 0
  %7 = load ptr, ptr %4, align 8, !tbaa !16
  store ptr %7, ptr %6, align 8, !tbaa !16
  ret void
}

; Function Attrs: inlinehint mustprogress uwtable
define linkonce_odr dso_local noundef ptr @_ZSt9__find_ifIPKcN9__gnu_cxx5__ops16_Iter_equals_valIS0_EEET_S6_S6_T0_(ptr noundef %0, ptr noundef %1, ptr %2) #6 comdat {
  %4 = alloca %"struct.__gnu_cxx::__ops::_Iter_equals_val", align 8
  %5 = alloca ptr, align 8
  %6 = alloca ptr, align 8
  %7 = alloca %"struct.__gnu_cxx::__ops::_Iter_equals_val", align 8
  %8 = getelementptr inbounds nuw %"struct.__gnu_cxx::__ops::_Iter_equals_val", ptr %4, i32 0, i32 0
  store ptr %2, ptr %8, align 8
  store ptr %0, ptr %5, align 8, !tbaa !16
  store ptr %1, ptr %6, align 8, !tbaa !16
  %9 = load ptr, ptr %5, align 8, !tbaa !16
  %10 = load ptr, ptr %6, align 8, !tbaa !16
  call void @llvm.memcpy.p0.p0.i64(ptr align 8 %7, ptr align 8 %4, i64 8, i1 false), !tbaa.struct !47
  call void @_ZSt19__iterator_categoryIPKcENSt15iterator_traitsIT_E17iterator_categoryERKS3_(ptr noundef nonnull align 8 dereferenceable(8) %5)
  %11 = getelementptr inbounds nuw %"struct.__gnu_cxx::__ops::_Iter_equals_val", ptr %7, i32 0, i32 0
  %12 = load ptr, ptr %11, align 8
  %13 = call noundef ptr @_ZSt9__find_ifIPKcN9__gnu_cxx5__ops16_Iter_equals_valIS0_EEET_S6_S6_T0_St26random_access_iterator_tag(ptr noundef %9, ptr noundef %10, ptr %12)
  ret ptr %13
}

; Function Attrs: inlinehint mustprogress uwtable
define linkonce_odr dso_local ptr @_ZN9__gnu_cxx5__ops17__iter_equals_valIKcEENS0_16_Iter_equals_valIT_EERS4_(ptr noundef nonnull align 1 dereferenceable(1) %0) #6 comdat {
  %2 = alloca %"struct.__gnu_cxx::__ops::_Iter_equals_val", align 8
  %3 = alloca ptr, align 8
  store ptr %0, ptr %3, align 8, !tbaa !16
  %4 = load ptr, ptr %3, align 8, !tbaa !16
  call void @_ZN9__gnu_cxx5__ops16_Iter_equals_valIKcEC2ERS2_(ptr noundef nonnull align 8 dereferenceable(8) %2, ptr noundef nonnull align 1 dereferenceable(1) %4)
  %5 = getelementptr inbounds nuw %"struct.__gnu_cxx::__ops::_Iter_equals_val", ptr %2, i32 0, i32 0
  %6 = load ptr, ptr %5, align 8
  ret ptr %6
}

; Function Attrs: inlinehint mustprogress uwtable
define linkonce_odr dso_local noundef ptr @_ZSt4findIPKccET_S2_S2_RKT0_(ptr noundef %0, ptr noundef %1, ptr noundef nonnull align 1 dereferenceable(1) %2) #6 comdat {
  %4 = alloca ptr, align 8
  %5 = alloca ptr, align 8
  %6 = alloca ptr, align 8
  %7 = alloca %"struct.__gnu_cxx::__ops::_Iter_equals_val", align 8
  store ptr %0, ptr %4, align 8, !tbaa !16
  store ptr %1, ptr %5, align 8, !tbaa !16
  store ptr %2, ptr %6, align 8, !tbaa !16
  %8 = load ptr, ptr %4, align 8, !tbaa !16
  %9 = load ptr, ptr %5, align 8, !tbaa !16
  %10 = load ptr, ptr %6, align 8, !tbaa !16
  %11 = call ptr @_ZN9__gnu_cxx5__ops17__iter_equals_valIKcEENS0_16_Iter_equals_valIT_EERS4_(ptr noundef nonnull align 1 dereferenceable(1) %10)
  %12 = getelementptr inbounds nuw %"struct.__gnu_cxx::__ops::_Iter_equals_val", ptr %7, i32 0, i32 0
  store ptr %11, ptr %12, align 8
  %13 = getelementptr inbounds nuw %"struct.__gnu_cxx::__ops::_Iter_equals_val", ptr %7, i32 0, i32 0
  %14 = load ptr, ptr %13, align 8
  %15 = call noundef ptr @_ZSt9__find_ifIPKcN9__gnu_cxx5__ops16_Iter_equals_valIS0_EEET_S6_S6_T0_(ptr noundef %8, ptr noundef %9, ptr %14)
  ret ptr %15
}

; Function Attrs: mustprogress uwtable
define dso_local noundef i64 @_ZNK4i18n12phonenumbers11StringPiece4findEcm(ptr noundef nonnull align 8 dereferenceable(16) %0, i8 noundef signext %1, i64 noundef %2) #0 align 2 {
  %4 = alloca i64, align 8
  %5 = alloca ptr, align 8
  %6 = alloca i8, align 1
  %7 = alloca i64, align 8
  %8 = alloca ptr, align 8
  store ptr %0, ptr %5, align 8, !tbaa !9
  store i8 %1, ptr %6, align 1, !tbaa !22
  store i64 %2, ptr %7, align 8, !tbaa !17
  %9 = load ptr, ptr %5, align 8
  %10 = load i64, ptr %7, align 8, !tbaa !17
  %11 = getelementptr inbounds nuw %"class.i18n::phonenumbers::StringPiece", ptr %9, i32 0, i32 1
  %12 = load i64, ptr %11, align 8, !tbaa !15
  %13 = icmp uge i64 %10, %12
  br i1 %13, label %14, label %15

14:                                               ; preds = %3
  store i64 -1, ptr %4, align 8
  br label %43

15:                                               ; preds = %3
  call void @llvm.lifetime.start.p0(i64 8, ptr %8) #13
  %16 = getelementptr inbounds nuw %"class.i18n::phonenumbers::StringPiece", ptr %9, i32 0, i32 0
  %17 = load ptr, ptr %16, align 8, !tbaa !11
  %18 = load i64, ptr %7, align 8, !tbaa !17
  %19 = getelementptr inbounds nuw i8, ptr %17, i64 %18
  %20 = getelementptr inbounds nuw %"class.i18n::phonenumbers::StringPiece", ptr %9, i32 0, i32 0
  %21 = load ptr, ptr %20, align 8, !tbaa !11
  %22 = getelementptr inbounds nuw %"class.i18n::phonenumbers::StringPiece", ptr %9, i32 0, i32 1
  %23 = load i64, ptr %22, align 8, !tbaa !15
  %24 = getelementptr inbounds nuw i8, ptr %21, i64 %23
  %25 = call noundef ptr @_ZSt4findIPKccET_S2_S2_RKT0_(ptr noundef %19, ptr noundef %24, ptr noundef nonnull align 1 dereferenceable(1) %6)
  store ptr %25, ptr %8, align 8, !tbaa !16
  %26 = load ptr, ptr %8, align 8, !tbaa !16
  %27 = getelementptr inbounds nuw %"class.i18n::phonenumbers::StringPiece", ptr %9, i32 0, i32 0
  %28 = load ptr, ptr %27, align 8, !tbaa !11
  %29 = getelementptr inbounds nuw %"class.i18n::phonenumbers::StringPiece", ptr %9, i32 0, i32 1
  %30 = load i64, ptr %29, align 8, !tbaa !15
  %31 = getelementptr inbounds nuw i8, ptr %28, i64 %30
  %32 = icmp ne ptr %26, %31
  br i1 %32, label %33, label %40

33:                                               ; preds = %15
  %34 = load ptr, ptr %8, align 8, !tbaa !16
  %35 = getelementptr inbounds nuw %"class.i18n::phonenumbers::StringPiece", ptr %9, i32 0, i32 0
  %36 = load ptr, ptr %35, align 8, !tbaa !11
  %37 = ptrtoint ptr %34 to i64
  %38 = ptrtoint ptr %36 to i64
  %39 = sub i64 %37, %38
  br label %41

40:                                               ; preds = %15
  br label %41

41:                                               ; preds = %40, %33
  %42 = phi i64 [ %39, %33 ], [ -1, %40 ]
  store i64 %42, ptr %4, align 8
  call void @llvm.lifetime.end.p0(i64 8, ptr %8) #13
  br label %43

43:                                               ; preds = %41, %14
  %44 = load i64, ptr %4, align 8
  ret i64 %44
}